; Function Attrs: mustprogress nofree norecurse nosync nounwind willreturn memory(read, inaccessiblemem: none) uwtable
define dso_local noundef i32 @_ZNK4llvm6object14WasmObjectFile18getSymbolSectionIdENS0_9SymbolRefE(ptr nocapture noundef nonnull readonly align 8 dereferenceable(684) %0, i64 %1, ptr nocapture readnone %2) local_unnamed_addr #5 align 2 {
  %.sroa.1.0.extract.shift.i = lshr i64 %1, 32
  %4 = getelementptr inbounds nuw i8, ptr %0, i64 536
  %5 = load ptr, ptr %4, align 8
  %6 = getelementptr inbounds %"class.llvm::object::WasmSymbol", ptr %5, i64 %.sroa.1.0.extract.shift.i
  %7 = getelementptr inbounds nuw i8, ptr %6, i64 16
  %8 = load i8, ptr %7, align 8
  switch i8 %8, label %21 [
    i8 0, label %9
    i8 2, label %11
    i8 1, label %13
    i8 3, label %15
    i8 4, label %17
    i8 5, label %19
  ]

9:                                                ; preds = %3
  %10 = getelementptr inbounds nuw i8, ptr %0, i64 664
  br label %_ZNK4llvm6object14WasmObjectFile22getSymbolSectionIdImplERKNS0_10WasmSymbolE.exit

11:                                               ; preds = %3
  %12 = getelementptr inbounds nuw i8, ptr %0, i64 676
  br label %_ZNK4llvm6object14WasmObjectFile22getSymbolSectionIdImplERKNS0_10WasmSymbolE.exit

13:                                               ; preds = %3
  %14 = getelementptr inbounds nuw i8, ptr %0, i64 668
  br label %_ZNK4llvm6object14WasmObjectFile22getSymbolSectionIdImplERKNS0_10WasmSymbolE.exit

15:                                               ; preds = %3
  %16 = getelementptr inbounds nuw i8, ptr %6, i64 96
  br label %_ZNK4llvm6object14WasmObjectFile22getSymbolSectionIdImplERKNS0_10WasmSymbolE.exit

17:                                               ; preds = %3
  %18 = getelementptr inbounds nuw i8, ptr %0, i64 672
  br label %_ZNK4llvm6object14WasmObjectFile22getSymbolSectionIdImplERKNS0_10WasmSymbolE.exit

19:                                               ; preds = %3
  %20 = getelementptr inbounds nuw i8, ptr %0, i64 680
  br label %_ZNK4llvm6object14WasmObjectFile22getSymbolSectionIdImplERKNS0_10WasmSymbolE.exit

21:                                               ; preds = %3
  unreachable

_ZNK4llvm6object14WasmObjectFile22getSymbolSectionIdImplERKNS0_10WasmSymbolE.exit: ; preds = %9, %11, %13, %15, %17, %19
  %.0.in.i = phi ptr [ %20, %19 ], [ %18, %17 ], [ %16, %15 ], [ %14, %13 ], [ %12, %11 ], [ %10, %9 ]
  %.0.i = load i32, ptr %.0.in.i, align 4
  ret i32 %.0.i
}